target datalayout = "e-m:e-p270:32:32-p271:32:32-p272:64:64-i64:64-i128:128-f80:128-n8:16:32:64-S128"
target triple = "x86_64-pc-linux-gnu"

%struct._object = type { %union.anon, ptr }
%union.anon = type { i64 }
%struct.anon = type { i32, i32 }
%struct.lru_cache_object = type { %struct.lru_list_elem, ptr, i32, ptr, i64, ptr, i64, i64, ptr, ptr, ptr, ptr, ptr }
%struct.lru_list_elem = type { %struct._object, ptr, ptr, i64, ptr, ptr }

@_Py_NoneStruct = external global %struct._object, align 8

; Function Attrs: alwaysinline nounwind uwtable
define internal i32 @_Py_IsImmortal(ptr noundef %0) #4 {
  %2 = alloca ptr, align 8
  store ptr %0, ptr %2, align 8, !tbaa !4
  %3 = load ptr, ptr %2, align 8, !tbaa !4
  %4 = getelementptr inbounds nuw %struct._object, ptr %3, i32 0, i32 0
  %5 = getelementptr inbounds nuw %struct.anon, ptr %4, i32 0, i32 0
  %6 = load i32, ptr %5, align 8, !tbaa !32
  %7 = icmp slt i32 %6, 0
  %8 = zext i1 %7 to i32
  ret i32 %8
}

; Function Attrs: alwaysinline nounwind uwtable
define internal void @Py_DECREF(ptr noundef %0) #4 {
  %2 = alloca ptr, align 8
  store ptr %0, ptr %2, align 8, !tbaa !4
  %3 = load ptr, ptr %2, align 8, !tbaa !4
  %4 = call i32 @_Py_IsImmortal(ptr noundef %3)
  %5 = icmp ne i32 %4, 0
  br i1 %5, label %6, label %7

6:                                                ; preds = %1
  br label %16

7:                                                ; preds = %1
  %8 = load ptr, ptr %2, align 8, !tbaa !4
  %9 = getelementptr inbounds nuw %struct._object, ptr %8, i32 0, i32 0
  %10 = getelementptr inbounds nuw %struct.anon, ptr %9, i32 0, i32 0
  %11 = load i32, ptr %10, align 8, !tbaa !32
  %12 = add i32 %11, -1
  store i32 %12, ptr %10, align 8, !tbaa !32
  %13 = icmp eq i32 %12, 0
  br i1 %13, label %14, label %16

14:                                               ; preds = %7
  %15 = load ptr, ptr %2, align 8, !tbaa !4
  call void @_Py_Dealloc(ptr noundef %15)
  br label %16

16:                                               ; preds = %6, %14, %7
  ret void
}

; Function Attrs: nounwind uwtable
define internal void @lru_cache_clear_list(ptr noundef %0) #0 {
  %2 = alloca ptr, align 8
  %3 = alloca ptr, align 8
  %4 = alloca ptr, align 8
  %5 = alloca ptr, align 8
  store ptr %0, ptr %2, align 8, !tbaa !163
  br label %6

6:                                                ; preds = %20, %1
  %7 = load ptr, ptr %2, align 8, !tbaa !163
  %8 = icmp ne ptr %7, null
  br i1 %8, label %9, label %21

9:                                                ; preds = %6
  call void @llvm.lifetime.start.p0(i64 8, ptr %3) #8
  %10 = load ptr, ptr %2, align 8, !tbaa !163
  %11 = getelementptr inbounds nuw %struct.lru_list_elem, ptr %10, i32 0, i32 2
  %12 = load ptr, ptr %11, align 8, !tbaa !164
  store ptr %12, ptr %3, align 8, !tbaa !163
  br label %13

13:                                               ; preds = %9
  call void @llvm.lifetime.start.p0(i64 8, ptr %4) #8
  store ptr %2, ptr %4, align 8, !tbaa !180
  call void @llvm.lifetime.start.p0(i64 8, ptr %5) #8
  %14 = load ptr, ptr %4, align 8, !tbaa !180
  %15 = load ptr, ptr %14, align 8, !tbaa !163
  store ptr %15, ptr %5, align 8, !tbaa !163
  %16 = load ptr, ptr %3, align 8, !tbaa !163
  %17 = load ptr, ptr %4, align 8, !tbaa !180
  store ptr %16, ptr %17, align 8, !tbaa !163
  %18 = load ptr, ptr %5, align 8, !tbaa !163
  call void @Py_DECREF(ptr noundef %18)
  call void @llvm.lifetime.end.p0(i64 8, ptr %5) #8
  call void @llvm.lifetime.end.p0(i64 8, ptr %4) #8
  br label %19

19:                                               ; preds = %13
  br label %20

20:                                               ; preds = %19
  call void @llvm.lifetime.end.p0(i64 8, ptr %3) #8
  br label %6, !llvm.loop !182

21:                                               ; preds = %6
  ret void
}

; Function Attrs: nounwind uwtable
define internal ptr @lru_cache_unlink_list(ptr noundef %0) #0 {
  %2 = alloca ptr, align 8
  %3 = alloca ptr, align 8
  %4 = alloca ptr, align 8
  %5 = alloca ptr, align 8
  %6 = alloca i32, align 4
  store ptr %0, ptr %3, align 8, !tbaa !155
  call void @llvm.lifetime.start.p0(i64 8, ptr %4) #8
  %7 = load ptr, ptr %3, align 8, !tbaa !155
  %8 = getelementptr inbounds nuw %struct.lru_cache_object, ptr %7, i32 0, i32 0
  store ptr %8, ptr %4, align 8, !tbaa !163
  call void @llvm.lifetime.start.p0(i64 8, ptr %5) #8
  %9 = load ptr, ptr %4, align 8, !tbaa !163
  %10 = getelementptr inbounds nuw %struct.lru_list_elem, ptr %9, i32 0, i32 2
  %11 = load ptr, ptr %10, align 8, !tbaa !164
  store ptr %11, ptr %5, align 8, !tbaa !163
  %12 = load ptr, ptr %5, align 8, !tbaa !163
  %13 = load ptr, ptr %4, align 8, !tbaa !163
  %14 = icmp eq ptr %12, %13
  br i1 %14, label %15, label %16

15:                                               ; preds = %1
  store ptr null, ptr %2, align 8
  store i32 1, ptr %6, align 4
  br label %27

16:                                               ; preds = %1
  %17 = load ptr, ptr %4, align 8, !tbaa !163
  %18 = getelementptr inbounds nuw %struct.lru_list_elem, ptr %17, i32 0, i32 1
  %19 = load ptr, ptr %18, align 8, !tbaa !179
  %20 = getelementptr inbounds nuw %struct.lru_list_elem, ptr %19, i32 0, i32 2
  store ptr null, ptr %20, align 8, !tbaa !164
  %21 = load ptr, ptr %4, align 8, !tbaa !163
  %22 = load ptr, ptr %4, align 8, !tbaa !163
  %23 = getelementptr inbounds nuw %struct.lru_list_elem, ptr %22, i32 0, i32 1
  store ptr %21, ptr %23, align 8, !tbaa !179
  %24 = load ptr, ptr %4, align 8, !tbaa !163
  %25 = getelementptr inbounds nuw %struct.lru_list_elem, ptr %24, i32 0, i32 2
  store ptr %21, ptr %25, align 8, !tbaa !164
  %26 = load ptr, ptr %5, align 8, !tbaa !163
  store ptr %26, ptr %2, align 8
  store i32 1, ptr %6, align 4
  br label %27

27:                                               ; preds = %16, %15
  call void @llvm.lifetime.end.p0(i64 8, ptr %5) #8
  call void @llvm.lifetime.end.p0(i64 8, ptr %4) #8
  %28 = load ptr, ptr %2, align 8
  ret ptr %28
}

; Function Attrs: nounwind uwtable
define internal ptr @_functools__lru_cache_wrapper_cache_clear_impl(ptr noundef %0) #0 {
  %2 = alloca ptr, align 8
  %3 = alloca ptr, align 8
  %4 = alloca ptr, align 8
  store ptr %0, ptr %2, align 8, !tbaa !4
  call void @llvm.lifetime.start.p0(i64 8, ptr %3) #8
  %5 = load ptr, ptr %2, align 8, !tbaa !4
  store ptr %5, ptr %3, align 8, !tbaa !155
  call void @llvm.lifetime.start.p0(i64 8, ptr %4) #8
  %6 = load ptr, ptr %3, align 8, !tbaa !155
  %7 = call ptr @lru_cache_unlink_list(ptr noundef %6)
  store ptr %7, ptr %4, align 8, !tbaa !163
  %8 = load ptr, ptr %3, align 8, !tbaa !155
  %9 = getelementptr inbounds nuw %struct.lru_cache_object, ptr %8, i32 0, i32 7
  store i64 0, ptr %9, align 8, !tbaa !177
  %10 = load ptr, ptr %3, align 8, !tbaa !155
  %11 = getelementptr inbounds nuw %struct.lru_cache_object, ptr %10, i32 0, i32 4
  store i64 0, ptr %11, align 8, !tbaa !176
  %12 = load ptr, ptr %3, align 8, !tbaa !155
  %13 = getelementptr inbounds nuw %struct.lru_cache_object, ptr %12, i32 0, i32 3
  %14 = load ptr, ptr %13, align 8, !tbaa !168
  call void @PyDict_Clear(ptr noundef %14)
  %15 = load ptr, ptr %4, align 8, !tbaa !163
  call void @lru_cache_clear_list(ptr noundef %15)
  call void @llvm.lifetime.end.p0(i64 8, ptr %4) #8
  call void @llvm.lifetime.end.p0(i64 8, ptr %3) #8
  ret ptr @_Py_NoneStruct
}

; Function Attrs: nounwind uwtable
define internal ptr @_functools__lru_cache_wrapper_cache_clear(ptr noundef %0, ptr noundef %1) #0 {
  %3 = alloca ptr, align 8
  %4 = alloca ptr, align 8
  %5 = alloca ptr, align 8
  store ptr %0, ptr %3, align 8, !tbaa !4
  store ptr %1, ptr %4, align 8, !tbaa !4
  call void @llvm.lifetime.start.p0(i64 8, ptr %5) #8
  store ptr null, ptr %5, align 8, !tbaa !4
  %6 = load ptr, ptr %3, align 8, !tbaa !4
  %7 = call ptr @_functools__lru_cache_wrapper_cache_clear_impl(ptr noundef %6)
  store ptr %7, ptr %5, align 8, !tbaa !4
  %8 = load ptr, ptr %5, align 8, !tbaa !4
  call void @llvm.lifetime.end.p0(i64 8, ptr %5) #8
  ret ptr %8
}