; Function Attrs: nounwind uwtable
define internal noundef nonnull ptr @_functools__lru_cache_wrapper_cache_clear(ptr noundef %0, ptr readnone captures(none) %1) #0 {
  %3 = getelementptr inbounds nuw i8, ptr %0, i64 24
  %4 = load ptr, ptr %3, align 8, !tbaa !152
  %5 = icmp eq ptr %4, %0
  br i1 %5, label %lru_cache_unlink_list.exit.i, label %6

6:                                                ; preds = %2
  %7 = getelementptr inbounds nuw i8, ptr %0, i64 16
  %8 = load ptr, ptr %7, align 8, !tbaa !162
  %9 = getelementptr inbounds nuw i8, ptr %8, i64 24
  store ptr null, ptr %9, align 8, !tbaa !152
  store ptr %0, ptr %7, align 8, !tbaa !162
  store ptr %0, ptr %3, align 8, !tbaa !152
  br label %lru_cache_unlink_list.exit.i

lru_cache_unlink_list.exit.i:                     ; preds = %6, %2
  %.0.i.i = phi ptr [ %4, %6 ], [ null, %2 ]
  %10 = getelementptr inbounds nuw i8, ptr %0, i64 104
  store i64 0, ptr %10, align 8, !tbaa !168
  %11 = getelementptr inbounds nuw i8, ptr %0, i64 80
  store i64 0, ptr %11, align 8, !tbaa !167
  %12 = getelementptr inbounds nuw i8, ptr %0, i64 72
  %13 = load ptr, ptr %12, align 8, !tbaa !156
  tail call void @PyDict_Clear(ptr noundef %13) #9
  %.not6.i.i = icmp eq ptr %.0.i.i, null
  br i1 %.not6.i.i, label %_functools__lru_cache_wrapper_cache_clear_impl.exit, label %.lr.ph.i.i

.lr.ph.i.i:                                       ; preds = %lru_cache_unlink_list.exit.i, %Py_DECREF.exit.i.i
  %.07.i.i = phi ptr [ %15, %Py_DECREF.exit.i.i ], [ %.0.i.i, %lru_cache_unlink_list.exit.i ]
  %14 = getelementptr inbounds nuw i8, ptr %.07.i.i, i64 24
  %15 = load ptr, ptr %14, align 8, !tbaa !152
  %16 = load i32, ptr %.07.i.i, align 8, !tbaa !21
  %.not.i.i.i = icmp sgt i32 %16, -1
  br i1 %.not.i.i.i, label %17, label %Py_DECREF.exit.i.i

17:                                               ; preds = %.lr.ph.i.i
  %18 = add nsw i32 %16, -1
  store i32 %18, ptr %.07.i.i, align 8, !tbaa !21
  %19 = icmp eq i32 %18, 0
  br i1 %19, label %20, label %Py_DECREF.exit.i.i

20:                                               ; preds = %17
  tail call void @_Py_Dealloc(ptr noundef nonnull %.07.i.i) #9
  br label %Py_DECREF.exit.i.i

Py_DECREF.exit.i.i:                               ; preds = %20, %17, %.lr.ph.i.i
  %.not.i.i = icmp eq ptr %15, null
  br i1 %.not.i.i, label %_functools__lru_cache_wrapper_cache_clear_impl.exit, label %.lr.ph.i.i, !llvm.loop !163

_functools__lru_cache_wrapper_cache_clear_impl.exit: ; preds = %Py_DECREF.exit.i.i, %lru_cache_unlink_list.exit.i
  ret ptr @_Py_NoneStruct
}